; Function Attrs: mustprogress nofree norecurse nosync nounwind memory(read, inaccessiblemem: write) uwtable
define dso_local noundef i32 @_ZNK4llvm3rdf13DataFlowGraph2idEPKNS0_8NodeBaseE(ptr noundef nonnull readonly align 8 captures(none) dereferenceable(736) %0, ptr noundef %1) local_unnamed_addr #4 align 2 {
  %3 = icmp eq ptr %1, null
  br i1 %3, label %36, label %4

4:                                                ; preds = %2
  %5 = getelementptr inbounds nuw i8, ptr %0, i64 280
  %6 = ptrtoint ptr %1 to i64
  %7 = getelementptr inbounds nuw i8, ptr %0, i64 304
  %8 = getelementptr inbounds nuw i8, ptr %0, i64 312
  %9 = load ptr, ptr %8, align 8
  %10 = load ptr, ptr %7, align 8
  %11 = ptrtoint ptr %9 to i64
  %12 = ptrtoint ptr %10 to i64
  %13 = sub i64 %11, %12
  %14 = lshr exact i64 %13, 3
  %15 = trunc i64 %14 to i32
  %16 = load i32, ptr %5, align 8
  %17 = shl i32 %16, 5
  %18 = zext i32 %17 to i64
  br label %19

19:                                               ; preds = %19, %4
  %.0.i = phi i32 [ 0, %4 ], [ %27, %19 ]
  %20 = icmp ne i32 %.0.i, %15
  tail call void @llvm.assume(i1 %20)
  %21 = zext i32 %.0.i to i64
  %22 = getelementptr inbounds nuw ptr, ptr %10, i64 %21
  %23 = load ptr, ptr %22, align 8
  %24 = ptrtoint ptr %23 to i64
  %25 = icmp uge ptr %1, %23
  %26 = add i64 %24, %18
  %.not.i = icmp ugt i64 %26, %6
  %or.cond.i = select i1 %25, i1 %.not.i, i1 false
  %27 = add i32 %.0.i, 1
  br i1 %or.cond.i, label %_ZNK4llvm3rdf13NodeAllocator2idEPKNS0_8NodeBaseE.exit, label %19, !llvm.loop !11

_ZNK4llvm3rdf13NodeAllocator2idEPKNS0_8NodeBaseE.exit: ; preds = %19
  %28 = sub i64 %6, %24
  %29 = lshr i64 %28, 5
  %30 = trunc i64 %29 to i32
  %31 = getelementptr inbounds nuw i8, ptr %0, i64 284
  %32 = load i32, ptr %31, align 4
  %33 = shl i32 %.0.i, %32
  %34 = or i32 %33, %30
  %35 = add i32 %34, 1
  br label %36

36:                                               ; preds = %2, %_ZNK4llvm3rdf13NodeAllocator2idEPKNS0_8NodeBaseE.exit
  %.0 = phi i32 [ %35, %_ZNK4llvm3rdf13NodeAllocator2idEPKNS0_8NodeBaseE.exit ], [ 0, %2 ]
  ret i32 %.0
}